(lp0
ccopy_reg
_reconstructor
p1
(cMathFunctions
Linear
p2
c__builtin__
object
p3
Ntp4
Rp5
(dp6
S'a'
p7
F3.0
sS'b'
p8
F4.0
sbag1
(cMathFunctions
Hyperbola
p9
g3
Ntp10
Rp11
(dp12
g7
F1.0
sbag1
(cMathFunctions
Parabola
p13
g3
Ntp14
Rp15
(dp16
g7
F1.0
sS'c'
p17
F4.0
sg8
F4.0
sbag1
(g2
g3
Ntp18
Rp19
(dp20
g7
F2.0
sg8
F1.0
sba.